; Function Attrs: mustprogress uwtable
define hidden void @_ZN4ncnn5sleepEy(i64 noundef %0) local_unnamed_addr #3 personality ptr @__gxx_personality_v0 {
  %2 = alloca %struct.timespec, align 8
  %3 = icmp slt i64 %0, 1
  br i1 %3, label %_ZNSt11this_thread9sleep_forIlSt5ratioILl1ELl1000EEEEvRKNSt6chrono8durationIT_T0_EE.exit, label %4

4:                                                ; preds = %1
  %5 = udiv i64 %0, 1000
  %.neg.i.i = mul nsw i64 %5, -1000
  %6 = add nsw i64 %.neg.i.i, %0
  %7 = mul nsw i64 %6, 1000000
  call void @llvm.lifetime.start.p0(i64 16, ptr nonnull %2) #6
  store i64 %5, ptr %2, align 8, !tbaa !4
  %8 = getelementptr inbounds nuw i8, ptr %2, i64 8
  store i64 %7, ptr %8, align 8, !tbaa !9
  br label %9

9:                                                ; preds = %12, %4
  %10 = call i32 @nanosleep(ptr noundef nonnull %2, ptr noundef nonnull %2)
  %11 = icmp eq i32 %10, -1
  br i1 %11, label %12, label %.critedge.i

12:                                               ; preds = %9
  %13 = tail call ptr @__errno_location() #7
  %14 = load i32, ptr %13, align 4, !tbaa !10
  %15 = icmp eq i32 %14, 4
  br i1 %15, label %9, label %.critedge.i, !llvm.loop !12

.critedge.i:                                      ; preds = %12, %9
  call void @llvm.lifetime.end.p0(i64 16, ptr nonnull %2) #6
  br label %_ZNSt11this_thread9sleep_forIlSt5ratioILl1ELl1000EEEEvRKNSt6chrono8durationIT_T0_EE.exit

_ZNSt11this_thread9sleep_forIlSt5ratioILl1ELl1000EEEEvRKNSt6chrono8durationIT_T0_EE.exit: ; preds = %1, %.critedge.i
  ret void
}